target datalayout = "e-m:e-p270:32:32-p271:32:32-p272:64:64-i64:64-i128:128-f80:128-n8:16:32:64-S128"
target triple = "x86_64-unknown-linux-gnu"

%struct.FLAC__StreamMetadata = type { i32, i32, i32, %union.anon }
%union.anon = type { %struct.FLAC__StreamMetadata_CueSheet }
%struct.FLAC__StreamMetadata_CueSheet = type { [129 x i8], i64, i32, i32, ptr }
%"class.FLAC::Metadata::Prototype" = type <{ ptr, ptr, i8, [7 x i8] }>
%struct.FLAC__StreamMetadata_Application = type { [4 x i8], ptr }

; Function Attrs: mustprogress nounwind sspstrong uwtable
define void @_ZN4FLAC8Metadata11Application6set_idEPKh(ptr noundef nonnull align 8 dereferenceable(17) %this, ptr noundef %value) #5 align 2 {
entry:
  %this.addr = alloca ptr, align 8
  %value.addr = alloca ptr, align 8
  store ptr %this, ptr %this.addr, align 8
  store ptr %value, ptr %value.addr, align 8
  %this1 = load ptr, ptr %this.addr, align 8
  %object_ = getelementptr inbounds %"class.FLAC::Metadata::Prototype", ptr %this1, i32 0, i32 1
  %0 = load ptr, ptr %object_, align 8
  %data = getelementptr inbounds %struct.FLAC__StreamMetadata, ptr %0, i32 0, i32 3
  %id = getelementptr inbounds %struct.FLAC__StreamMetadata_Application, ptr %data, i32 0, i32 0
  %arraydecay = getelementptr inbounds [4 x i8], ptr %id, i64 0, i64 0
  %1 = load ptr, ptr %value.addr, align 8
  call void @llvm.memcpy.p0.p0.i64(ptr align 8 %arraydecay, ptr align 1 %1, i64 4, i1 false)
  ret void
}