; Function Attrs: mustprogress nofree norecurse nosync nounwind sspstrong willreturn memory(write, argmem: readwrite, inaccessiblemem: none) uwtable
define void @_ZN4FLAC8Metadata11Application6set_idEPKh(ptr nocapture noundef nonnull readonly align 8 dereferenceable(17) %this, ptr nocapture noundef readonly %value) local_unnamed_addr #8 align 2 {
entry:
  %object_ = getelementptr inbounds i8, ptr %this, i64 8
  %0 = load ptr, ptr %object_, align 8
  %data = getelementptr inbounds i8, ptr %0, i64 16
  %1 = load i32, ptr %value, align 1
  store i32 %1, ptr %data, align 8
  ret void
}